; Function Attrs: mustprogress uwtable
define internal void @_ZL19pipeline_forward_3d6PJ_LPZP8PJconsts(ptr dead_on_unwind noalias writable writeonly sret(%struct.PJ_XYZ) align 8 captures(none) %0, ptr noundef readonly byval(%struct.PJ_LPZ) align 8 captures(none) %1, ptr noundef readonly captures(none) %2) #0 {
  %.sroa.8.sroa.0 = alloca [2 x double], align 8
  %4 = alloca %union.PJ_COORD, align 8
  %5 = alloca %union.PJ_COORD, align 8
  call void @llvm.lifetime.start.p0(i64 16, ptr nonnull %.sroa.8.sroa.0)
  %.sroa.0.0.copyload6 = load double, ptr %1, align 8, !tbaa !135
  %.sroa.8.0..sroa_idx9 = getelementptr inbounds nuw i8, ptr %1, i64 8
  call void @llvm.memcpy.p0.p0.i64(ptr noundef nonnull align 8 dereferenceable(16) %.sroa.8.sroa.0, ptr noundef nonnull align 8 dereferenceable(16) %.sroa.8.0..sroa_idx9, i64 16, i1 false), !tbaa.struct !136
  %6 = getelementptr inbounds nuw i8, ptr %2, i64 88
  %7 = load ptr, ptr %6, align 8, !tbaa !77
  %8 = getelementptr inbounds nuw i8, ptr %7, i64 16
  %.val12 = load ptr, ptr %8, align 8, !tbaa !120
  %9 = getelementptr i8, ptr %7, i64 24
  %.val = load ptr, ptr %9, align 8, !tbaa !120
  %.not20 = icmp eq ptr %.val12, %.val
  br i1 %.not20, label %._crit_edge, label %.lr.ph

.lr.ph:                                           ; preds = %3
  %.sroa.8.0..sroa_idx = getelementptr inbounds nuw i8, ptr %5, i64 8
  %.sroa.8.0..sroa_idx8 = getelementptr inbounds nuw i8, ptr %4, i64 8
  %.sroa.8.sroa.6.0..sroa.8.0..sroa_idx.sroa_idx = getelementptr inbounds nuw i8, ptr %5, i64 24
  %.sroa.8.sroa.6.0..sroa.8.0..sroa_idx8.sroa_idx = getelementptr inbounds nuw i8, ptr %4, i64 24
  br label %10

10:                                               ; preds = %.lr.ph, %17
  %.sroa.8.sroa.6.0 = phi i64 [ 0, %.lr.ph ], [ %.sroa.8.sroa.6.1, %17 ]
  %.sroa.0.022 = phi double [ %.sroa.0.0.copyload6, %.lr.ph ], [ %.sroa.0.3.ph, %17 ]
  %.sroa.016.021 = phi ptr [ %.val12, %.lr.ph ], [ %18, %17 ]
  %11 = getelementptr inbounds nuw i8, ptr %.sroa.016.021, i64 8
  %12 = load i8, ptr %11, align 8, !tbaa !111, !range !115, !noundef !116
  %13 = trunc nuw i8 %12 to i1
  br i1 %13, label %17, label %14

14:                                               ; preds = %10
  call void @llvm.lifetime.start.p0(i64 32, ptr nonnull %4) #19
  %15 = load ptr, ptr %.sroa.016.021, align 8, !tbaa !109
  store double %.sroa.0.022, ptr %5, align 8
  call void @llvm.memcpy.p0.p0.i64(ptr noundef nonnull align 8 dereferenceable(16) %.sroa.8.0..sroa_idx, ptr noundef nonnull align 8 dereferenceable(16) %.sroa.8.sroa.0, i64 16, i1 false), !tbaa.struct !137
  store i64 %.sroa.8.sroa.6.0, ptr %.sroa.8.sroa.6.0..sroa.8.0..sroa_idx.sroa_idx, align 8, !tbaa !79
  call void @_Z18pj_approx_3D_transP8PJconsts12PJ_DIRECTION8PJ_COORD(ptr dead_on_unwind nonnull writable sret(%union.PJ_COORD) align 8 %4, ptr noundef %15, i32 noundef 1, ptr noundef nonnull byval(%union.PJ_COORD) align 8 %5)
  %.sroa.0.0.copyload5 = load double, ptr %4, align 8
  call void @llvm.memcpy.p0.p0.i64(ptr noundef nonnull align 8 dereferenceable(16) %.sroa.8.sroa.0, ptr noundef nonnull align 8 dereferenceable(16) %.sroa.8.0..sroa_idx8, i64 16, i1 false), !tbaa.struct !137
  %.sroa.8.sroa.6.0.copyload25 = load i64, ptr %.sroa.8.sroa.6.0..sroa.8.0..sroa_idx8.sroa_idx, align 8, !tbaa !79
  call void @llvm.lifetime.end.p0(i64 32, ptr nonnull %4) #19
  %16 = fcmp oeq double %.sroa.0.0.copyload5, 0x7FF0000000000000
  br i1 %16, label %._crit_edge, label %17

17:                                               ; preds = %14, %10
  %.sroa.8.sroa.6.1 = phi i64 [ %.sroa.8.sroa.6.0, %10 ], [ %.sroa.8.sroa.6.0.copyload25, %14 ]
  %.sroa.0.3.ph = phi double [ %.sroa.0.022, %10 ], [ %.sroa.0.0.copyload5, %14 ]
  %18 = getelementptr inbounds nuw i8, ptr %.sroa.016.021, i64 16
  %.not = icmp eq ptr %18, %.val
  br i1 %.not, label %._crit_edge, label %10

._crit_edge:                                      ; preds = %17, %14, %3
  %.sroa.0.1 = phi double [ %.sroa.0.0.copyload6, %3 ], [ 0x7FF0000000000000, %14 ], [ %.sroa.0.3.ph, %17 ]
  store double %.sroa.0.1, ptr %0, align 8, !tbaa !135
  %.sroa.8.0..sroa_idx10 = getelementptr inbounds nuw i8, ptr %0, i64 8
  call void @llvm.memcpy.p0.p0.i64(ptr noundef nonnull align 8 dereferenceable(16) %.sroa.8.0..sroa_idx10, ptr noundef nonnull align 8 dereferenceable(16) %.sroa.8.sroa.0, i64 16, i1 false), !tbaa.struct !136
  call void @llvm.lifetime.end.p0(i64 16, ptr nonnull %.sroa.8.sroa.0)
  ret void
}